target datalayout = "e-m:e-p270:32:32-p271:32:32-p272:64:64-i64:64-i128:128-f80:128-n8:16:32:64-S128"
target triple = "x86_64-pc-linux-gnu"

%union.pthread_mutex_t = type { %struct.__pthread_mutex_s }
%struct.__pthread_mutex_s = type { i32, i32, i32, i32, i32, i16, i16, %struct.__pthread_internal_list }
%struct.__pthread_internal_list = type { ptr, ptr }
%struct.wolfSSL_RefWithMutex = type { %union.pthread_mutex_t, i32 }
%struct.WOLFSSL_CTX = type <{ ptr, %struct.wolfSSL_RefWithMutex, i32, [4 x i8], %struct.WOLFSSL_BUFFER_INFO, %struct.WOLFSSL_BUFFER_INFO, ptr, ptr, i32, [4 x i8], ptr, i8, i8, [2 x i8], i32, i32, [4 x i8], ptr, ptr, ptr, i8, i16, i8, i8, i8, i16, i16, i16, i16, [2 x i8], i64, ptr, ptr, ptr, ptr, i32, i32, i16, [2 x i8], i32, [10 x i16], i8, [3 x i8], ptr, ptr, i32, [4 x i8], ptr, i8, [7 x i8] }>
%struct.WOLFSSL_BUFFER_INFO = type { ptr, i32 }

; Function Attrs: nounwind uwtable
define internal i32 @ProcessChainBuffer(ptr noundef %0, ptr noundef %1, ptr noundef %2, i64 noundef %3, i32 noundef %4, i32 noundef %5) #0 {
  %7 = alloca ptr, align 8
  %8 = alloca ptr, align 8
  %9 = alloca ptr, align 8
  %10 = alloca i64, align 8
  %11 = alloca i32, align 4
  %12 = alloca i32, align 4
  %13 = alloca i32, align 4
  %14 = alloca i64, align 8
  %15 = alloca i32, align 4
  %16 = alloca i64, align 8
  store ptr %0, ptr %7, align 8, !tbaa !24
  store ptr %1, ptr %8, align 8, !tbaa !61
  store ptr %2, ptr %9, align 8, !tbaa !21
  store i64 %3, ptr %10, align 8, !tbaa !22
  store i32 %4, ptr %11, align 4, !tbaa !7
  store i32 %5, ptr %12, align 4, !tbaa !7
  call void @llvm.lifetime.start.p0(i64 4, ptr %13) #9
  store i32 0, ptr %13, align 4, !tbaa !7
  call void @llvm.lifetime.start.p0(i64 8, ptr %14) #9
  store i64 0, ptr %14, align 8, !tbaa !22
  call void @llvm.lifetime.start.p0(i64 4, ptr %15) #9
  store i32 0, ptr %15, align 4, !tbaa !7
  br label %17

17:                                               ; preds = %6
  br label %18

18:                                               ; preds = %17
  br label %19

19:                                               ; preds = %18
  br label %20

20:                                               ; preds = %77, %19
  %21 = load i32, ptr %13, align 4, !tbaa !7
  %22 = icmp sge i32 %21, 0
  br i1 %22, label %23, label %27

23:                                               ; preds = %20
  %24 = load i64, ptr %14, align 8, !tbaa !22
  %25 = load i64, ptr %10, align 8, !tbaa !22
  %26 = icmp slt i64 %24, %25
  br label %27

27:                                               ; preds = %23, %20
  %28 = phi i1 [ false, %20 ], [ %26, %23 ]
  br i1 %28, label %29, label %81

29:                                               ; preds = %27
  call void @llvm.lifetime.start.p0(i64 8, ptr %16) #9
  store i64 0, ptr %16, align 8, !tbaa !22
  %30 = load ptr, ptr %7, align 8, !tbaa !24
  %31 = load ptr, ptr %9, align 8, !tbaa !21
  %32 = load i64, ptr %14, align 8, !tbaa !22
  %33 = getelementptr inbounds i8, ptr %31, i64 %32
  %34 = load i64, ptr %10, align 8, !tbaa !22
  %35 = load i64, ptr %14, align 8, !tbaa !22
  %36 = sub nsw i64 %34, %35
  %37 = load i32, ptr %11, align 4, !tbaa !7
  %38 = load ptr, ptr %8, align 8, !tbaa !61
  %39 = load i32, ptr %12, align 4, !tbaa !7
  %40 = call i32 @ProcessBuffer(ptr noundef %30, ptr noundef %33, i64 noundef %36, i32 noundef 1, i32 noundef %37, ptr noundef %38, ptr noundef %16, i32 noundef 0, i32 noundef %39)
  store i32 %40, ptr %13, align 4, !tbaa !7
  %41 = load i32, ptr %13, align 4, !tbaa !7
  %42 = icmp eq i32 %41, -125
  br i1 %42, label %43, label %44

43:                                               ; preds = %29
  store i32 0, ptr %15, align 4, !tbaa !7
  br label %77

44:                                               ; preds = %29
  %45 = load i32, ptr %13, align 4, !tbaa !7
  %46 = icmp slt i32 %45, 0
  br i1 %46, label %47, label %72

47:                                               ; preds = %44
  %48 = load i64, ptr %16, align 8, !tbaa !22
  %49 = icmp sgt i64 %48, 0
  br i1 %49, label %50, label %64

50:                                               ; preds = %47
  br label %51

51:                                               ; preds = %50
  br label %52

52:                                               ; preds = %51
  br label %53

53:                                               ; preds = %52
  br label %54

54:                                               ; preds = %53
  br label %55

55:                                               ; preds = %54
  br label %56

56:                                               ; preds = %55
  %57 = load i64, ptr %14, align 8, !tbaa !22
  %58 = load i64, ptr %16, align 8, !tbaa !22
  %59 = add nsw i64 %57, %58
  %60 = load i64, ptr %10, align 8, !tbaa !22
  %61 = icmp slt i64 %59, %60
  br i1 %61, label %62, label %63

62:                                               ; preds = %56
  store i32 0, ptr %13, align 4, !tbaa !7
  br label %63

63:                                               ; preds = %62, %56
  br label %71

64:                                               ; preds = %47
  br label %65

65:                                               ; preds = %64
  br label %66

66:                                               ; preds = %65
  br label %67

67:                                               ; preds = %66
  br label %68

68:                                               ; preds = %67
  br label %69

69:                                               ; preds = %68
  br label %70

70:                                               ; preds = %69
  br label %71

71:                                               ; preds = %70, %63
  br label %76

72:                                               ; preds = %44
  br label %73

73:                                               ; preds = %72
  br label %74

74:                                               ; preds = %73
  br label %75

75:                                               ; preds = %74
  store i32 1, ptr %15, align 4, !tbaa !7
  br label %76

76:                                               ; preds = %75, %71
  br label %77

77:                                               ; preds = %76, %43
  %78 = load i64, ptr %16, align 8, !tbaa !22
  %79 = load i64, ptr %14, align 8, !tbaa !22
  %80 = add nsw i64 %79, %78
  store i64 %80, ptr %14, align 8, !tbaa !22
  call void @llvm.lifetime.end.p0(i64 8, ptr %16) #9
  br label %20, !llvm.loop !233

81:                                               ; preds = %27
  %82 = load i32, ptr %15, align 4, !tbaa !7
  %83 = icmp ne i32 %82, 0
  br i1 %83, label %84, label %88

84:                                               ; preds = %81
  br label %85

85:                                               ; preds = %84
  br label %86

86:                                               ; preds = %85
  br label %87

87:                                               ; preds = %86
  store i32 1, ptr %13, align 4, !tbaa !7
  br label %88

88:                                               ; preds = %87, %81
  %89 = load i32, ptr %13, align 4, !tbaa !7
  call void @llvm.lifetime.end.p0(i64 4, ptr %15) #9
  call void @llvm.lifetime.end.p0(i64 8, ptr %14) #9
  call void @llvm.lifetime.end.p0(i64 4, ptr %13) #9
  ret i32 %89
}

; Function Attrs: nounwind uwtable
define i32 @wolfSSL_CTX_load_verify_buffer_ex(ptr noundef %0, ptr noundef %1, i64 noundef %2, i32 noundef %3, i32 noundef %4, i32 noundef %5) #0 {
  %7 = alloca ptr, align 8
  %8 = alloca ptr, align 8
  %9 = alloca i64, align 8
  %10 = alloca i32, align 4
  %11 = alloca i32, align 4
  %12 = alloca i32, align 4
  %13 = alloca i32, align 4
  %14 = alloca i32, align 4
  store ptr %0, ptr %7, align 8, !tbaa !24
  store ptr %1, ptr %8, align 8, !tbaa !21
  store i64 %2, ptr %9, align 8, !tbaa !22
  store i32 %3, ptr %10, align 4, !tbaa !7
  store i32 %4, ptr %11, align 4, !tbaa !7
  store i32 %5, ptr %12, align 4, !tbaa !7
  call void @llvm.lifetime.start.p0(i64 4, ptr %13) #9
  call void @llvm.lifetime.start.p0(i64 4, ptr %14) #9
  br label %15

15:                                               ; preds = %6
  br label %16

16:                                               ; preds = %15
  br label %17

17:                                               ; preds = %16
  %18 = load ptr, ptr %7, align 8, !tbaa !24
  %19 = icmp ne ptr %18, null
  br i1 %19, label %20, label %29

20:                                               ; preds = %17
  %21 = load ptr, ptr %7, align 8, !tbaa !24
  %22 = getelementptr inbounds nuw %struct.WOLFSSL_CTX, ptr %21, i32 0, i32 21
  %23 = load i16, ptr %22, align 1
  %24 = lshr i16 %23, 1
  %25 = and i16 %24, 1
  %26 = trunc i16 %25 to i8
  %27 = zext i8 %26 to i32
  %28 = icmp ne i32 %27, 0
  br label %29

29:                                               ; preds = %20, %17
  %30 = phi i1 [ false, %17 ], [ %28, %20 ]
  %31 = select i1 %30, i32 0, i32 1
  store i32 %31, ptr %14, align 4, !tbaa !7
  %32 = load i32, ptr %12, align 4, !tbaa !7
  %33 = and i32 %32, 2
  %34 = icmp ne i32 %33, 0
  br i1 %34, label %35, label %36

35:                                               ; preds = %29
  store i32 5, ptr %14, align 4, !tbaa !7
  br label %36

36:                                               ; preds = %35, %29
  %37 = load i32, ptr %10, align 4, !tbaa !7
  %38 = icmp eq i32 %37, 1
  br i1 %38, label %39, label %45

39:                                               ; preds = %36
  %40 = load ptr, ptr %7, align 8, !tbaa !24
  %41 = load ptr, ptr %8, align 8, !tbaa !21
  %42 = load i64, ptr %9, align 8, !tbaa !22
  %43 = load i32, ptr %14, align 4, !tbaa !7
  %44 = call i32 @ProcessChainBuffer(ptr noundef %40, ptr noundef null, ptr noundef %41, i64 noundef %42, i32 noundef 6, i32 noundef %43)
  store i32 %44, ptr %13, align 4, !tbaa !7
  br label %53

45:                                               ; preds = %36
  %46 = load ptr, ptr %7, align 8, !tbaa !24
  %47 = load ptr, ptr %8, align 8, !tbaa !21
  %48 = load i64, ptr %9, align 8, !tbaa !22
  %49 = load i32, ptr %10, align 4, !tbaa !7
  %50 = load i32, ptr %11, align 4, !tbaa !7
  %51 = load i32, ptr %14, align 4, !tbaa !7
  %52 = call i32 @ProcessBuffer(ptr noundef %46, ptr noundef %47, i64 noundef %48, i32 noundef %49, i32 noundef 6, ptr noundef null, ptr noundef null, i32 noundef %50, i32 noundef %51)
  store i32 %52, ptr %13, align 4, !tbaa !7
  br label %53

53:                                               ; preds = %45, %39
  br label %54

54:                                               ; preds = %53
  br label %55

55:                                               ; preds = %54
  br label %56

56:                                               ; preds = %55
  %57 = load i32, ptr %13, align 4, !tbaa !7
  call void @llvm.lifetime.end.p0(i64 4, ptr %14) #9
  call void @llvm.lifetime.end.p0(i64 4, ptr %13) #9
  ret i32 %57
}