; Function Attrs: nounwind uwtable
define i32 @wolfSSL_CTX_load_verify_buffer_ex(ptr noundef %0, ptr noundef %1, i64 noundef %2, i32 noundef %3, i32 noundef %4, i32 noundef %5) local_unnamed_addr #0 {
  %7 = alloca i64, align 8
  %.not = icmp eq ptr %0, null
  br i1 %.not, label %14, label %8

8:                                                ; preds = %6
  %9 = getelementptr inbounds nuw i8, ptr %0, i64 169
  %10 = load i16, ptr %9, align 1
  %11 = and i16 %10, 2
  %12 = icmp eq i16 %11, 0
  %13 = zext i1 %12 to i32
  br label %14

14:                                               ; preds = %8, %6
  %not. = phi i32 [ 1, %6 ], [ %13, %8 ]
  %15 = and i32 %5, 2
  %.not16 = icmp eq i32 %15, 0
  %spec.store.select = select i1 %.not16, i32 %not., i32 5
  %16 = icmp eq i32 %3, 1
  br i1 %16, label %17, label %34

17:                                               ; preds = %14
  %18 = icmp sgt i64 %2, 0
  br i1 %18, label %.lr.ph.i, label %ProcessChainBuffer.exit

.lr.ph.i:                                         ; preds = %17, %29
  %.027.i = phi i32 [ %.1.i, %29 ], [ 0, %17 ]
  %.01726.i = phi i64 [ %.pre-phi, %29 ], [ 0, %17 ]
  call void @llvm.lifetime.start.p0(i64 8, ptr nonnull %7) #22
  store i64 0, ptr %7, align 8, !tbaa !27
  %19 = getelementptr inbounds i8, ptr %1, i64 %.01726.i
  %20 = sub nsw i64 %2, %.01726.i
  %21 = call i32 @ProcessBuffer(ptr noundef %0, ptr noundef %19, i64 noundef %20, i32 noundef 1, i32 noundef 6, ptr noundef null, ptr noundef nonnull %7, i32 noundef 0, i32 noundef %spec.store.select)
  %22 = icmp eq i32 %21, -125
  br i1 %22, label %._crit_edge.loopexit.thread.i, label %23

._crit_edge.loopexit.thread.i:                    ; preds = %.lr.ph.i
  call void @llvm.lifetime.end.p0(i64 8, ptr nonnull %7) #22
  br label %ProcessChainBuffer.exit

23:                                               ; preds = %.lr.ph.i
  %24 = icmp slt i32 %21, 0
  %.pre29.i = load i64, ptr %7, align 8, !tbaa !27
  br i1 %24, label %25, label %._crit_edge

._crit_edge:                                      ; preds = %23
  %.pre = add nsw i64 %.pre29.i, %.01726.i
  br label %29

25:                                               ; preds = %23
  %26 = icmp sgt i64 %.pre29.i, 0
  %27 = add nsw i64 %.pre29.i, %.01726.i
  %28 = icmp slt i64 %27, %2
  %or.cond.i = select i1 %26, i1 %28, i1 false
  %spec.select25.i = select i1 %or.cond.i, i32 0, i32 %21
  br label %29

29:                                               ; preds = %._crit_edge, %25
  %.pre-phi = phi i64 [ %.pre, %._crit_edge ], [ %27, %25 ]
  %.119.i = phi i32 [ %21, %._crit_edge ], [ %spec.select25.i, %25 ]
  %.1.i = phi i32 [ 1, %._crit_edge ], [ %.027.i, %25 ]
  call void @llvm.lifetime.end.p0(i64 8, ptr nonnull %7) #22
  %30 = icmp sgt i32 %.119.i, -1
  %31 = icmp slt i64 %.pre-phi, %2
  %32 = select i1 %30, i1 %31, i1 false
  br i1 %32, label %.lr.ph.i, label %._crit_edge.loopexit.i, !llvm.loop !28

._crit_edge.loopexit.i:                           ; preds = %29
  %33 = icmp eq i32 %.1.i, 0
  %spec.select.i = select i1 %33, i32 %.119.i, i32 1
  br label %ProcessChainBuffer.exit

34:                                               ; preds = %14
  %35 = tail call i32 @ProcessBuffer(ptr noundef %0, ptr noundef %1, i64 noundef %2, i32 noundef %3, i32 noundef 6, ptr noundef null, ptr noundef null, i32 noundef %4, i32 noundef %spec.store.select)
  br label %ProcessChainBuffer.exit

ProcessChainBuffer.exit:                          ; preds = %._crit_edge.loopexit.i, %._crit_edge.loopexit.thread.i, %17, %34
  %.0 = phi i32 [ %35, %34 ], [ 0, %17 ], [ -125, %._crit_edge.loopexit.thread.i ], [ %spec.select.i, %._crit_edge.loopexit.i ]
  ret i32 %.0
}